; Function Attrs: nounwind uwtable
define dso_local range(i32 0, 2) i32 @dictReplace(ptr noundef %0, ptr noundef %1, ptr noundef %2) local_unnamed_addr #3 {
  %4 = alloca ptr, align 8
  call void @llvm.lifetime.start.p0(i64 8, ptr nonnull %4) #25
  %5 = call ptr @dictFindPositionForInsert(ptr noundef %0, ptr noundef %1, ptr noundef nonnull %4)
  %.not.i = icmp eq ptr %5, null
  br i1 %.not.i, label %dictAddRaw.exit.thread, label %6

6:                                                ; preds = %3
  %7 = load ptr, ptr %0, align 8, !tbaa !16
  %8 = getelementptr inbounds nuw i8, ptr %7, i64 8
  %9 = load ptr, ptr %8, align 8, !tbaa !49
  %.not15.i = icmp eq ptr %9, null
  br i1 %.not15.i, label %dictAddRaw.exit, label %10

10:                                               ; preds = %6
  %11 = call ptr %9(ptr noundef nonnull %0, ptr noundef %1) #25
  br label %dictAddRaw.exit

dictAddRaw.exit:                                  ; preds = %6, %10
  %.012.i = phi ptr [ %11, %10 ], [ %1, %6 ]
  %12 = call ptr @dictInsertAtPosition(ptr noundef nonnull %0, ptr noundef %.012.i, ptr noundef nonnull %5)
  %.not = icmp eq ptr %12, null
  br i1 %.not, label %dictAddRaw.exit.thread, label %13

13:                                               ; preds = %dictAddRaw.exit
  %14 = ptrtoint ptr %12 to i64
  %15 = and i64 %14, 7
  %.not.i15 = icmp eq i64 %15, 0
  br i1 %.not.i15, label %17, label %16, !prof !25

16:                                               ; preds = %13
  call void @_serverAssert(ptr noundef nonnull @.str.9, ptr noundef nonnull @.str.1, i32 noundef 883) #25
  call void @abort() #27
  unreachable

17:                                               ; preds = %13
  %18 = load ptr, ptr %0, align 8, !tbaa !16
  %19 = getelementptr inbounds nuw i8, ptr %18, i64 16
  %20 = load ptr, ptr %19, align 8, !tbaa !50
  %.not7.i = icmp eq ptr %20, null
  br i1 %.not7.i, label %dictSetVal.exit, label %21

21:                                               ; preds = %17
  %22 = call ptr %20(ptr noundef nonnull %0, ptr noundef %2) #25
  br label %dictSetVal.exit

dictSetVal.exit:                                  ; preds = %17, %21
  %23 = phi ptr [ %22, %21 ], [ %2, %17 ]
  %24 = getelementptr inbounds nuw i8, ptr %12, i64 8
  store ptr %23, ptr %24, align 8, !tbaa !13
  br label %42

dictAddRaw.exit.thread:                           ; preds = %3, %dictAddRaw.exit
  %25 = load ptr, ptr %4, align 8, !tbaa !31
  %26 = ptrtoint ptr %25 to i64
  %27 = and i64 %26, 7
  %.not.i16 = icmp eq i64 %27, 0
  br i1 %.not.i16, label %29, label %28, !prof !25

28:                                               ; preds = %dictAddRaw.exit.thread
  call void @_serverAssert(ptr noundef nonnull @.str.9, ptr noundef nonnull @.str.1, i32 noundef 927) #25
  call void @abort() #27
  unreachable

29:                                               ; preds = %dictAddRaw.exit.thread
  %30 = getelementptr inbounds nuw i8, ptr %25, i64 8
  %31 = load ptr, ptr %30, align 8, !tbaa !13
  %32 = load ptr, ptr %0, align 8, !tbaa !16
  %33 = getelementptr inbounds nuw i8, ptr %32, i64 16
  %34 = load ptr, ptr %33, align 8, !tbaa !50
  %.not7.i18 = icmp eq ptr %34, null
  br i1 %.not7.i18, label %dictSetVal.exit19, label %35

35:                                               ; preds = %29
  %36 = call ptr %34(ptr noundef nonnull %0, ptr noundef %2) #25
  br label %dictSetVal.exit19

dictSetVal.exit19:                                ; preds = %29, %35
  %37 = phi ptr [ %36, %35 ], [ %2, %29 ]
  store ptr %37, ptr %30, align 8, !tbaa !13
  %38 = load ptr, ptr %0, align 8, !tbaa !16
  %39 = getelementptr inbounds nuw i8, ptr %38, i64 40
  %40 = load ptr, ptr %39, align 8, !tbaa !55
  %.not14 = icmp eq ptr %40, null
  br i1 %.not14, label %42, label %41

41:                                               ; preds = %dictSetVal.exit19
  call void %40(ptr noundef nonnull %0, ptr noundef %31) #25
  br label %42

42:                                               ; preds = %dictSetVal.exit19, %41, %dictSetVal.exit
  %.0 = phi i32 [ 1, %dictSetVal.exit ], [ 0, %41 ], [ 0, %dictSetVal.exit19 ]
  call void @llvm.lifetime.end.p0(i64 8, ptr nonnull %4) #25
  ret i32 %.0
}